; Function Attrs: nounwind uwtable
define void @Gia_ManHashAlloc(ptr noundef captures(none) %0) local_unnamed_addr #2 {
  %2 = getelementptr inbounds nuw i8, ptr %0, i64 24
  %3 = load i32, ptr %2, align 8, !tbaa !34
  %4 = getelementptr inbounds nuw i8, ptr %0, i64 64
  %5 = load ptr, ptr %4, align 8, !tbaa !35
  %6 = getelementptr i8, ptr %5, i64 4
  %.val.i = load i32, ptr %6, align 4, !tbaa !3
  %7 = getelementptr inbounds nuw i8, ptr %0, i64 72
  %8 = load ptr, ptr %7, align 8, !tbaa !36
  %9 = getelementptr i8, ptr %8, i64 4
  %.val3.i = load i32, ptr %9, align 4, !tbaa !3
  %10 = add i32 %.val3.i, %.val.i
  %11 = xor i32 %10, -1
  %12 = add i32 %3, %11
  %.not = icmp eq i32 %12, 0
  br i1 %.not, label %15, label %13

13:                                               ; preds = %1
  %14 = add nsw i32 %12, 1000
  br label %18

15:                                               ; preds = %1
  %16 = getelementptr inbounds nuw i8, ptr %0, i64 28
  %17 = load i32, ptr %16, align 4, !tbaa !37
  br label %18

18:                                               ; preds = %15, %13
  %19 = phi i32 [ %14, %13 ], [ %17, %15 ]
  %20 = getelementptr inbounds nuw i8, ptr %0, i64 96
  %21 = add i32 %19, -1
  br label %.loopexit.i

.loopexit.i:                                      ; preds = %.loopexit.i.backedge, %18
  %.012.i = phi i32 [ %21, %18 ], [ %22, %.loopexit.i.backedge ]
  %22 = add i32 %.012.i, 1
  %23 = and i32 %.012.i, 1
  %.not.not.i = icmp eq i32 %23, 0
  br i1 %.not.not.i, label %.preheader.i, label %.loopexit.i.backedge

.loopexit.i.backedge:                             ; preds = %.lr.ph.i, %.loopexit.i
  br label %.loopexit.i, !llvm.loop !38

.preheader.i:                                     ; preds = %.loopexit.i
  %.not15.i = icmp ult i32 %22, 9
  br i1 %.not15.i, label %Abc_PrimeCudd.exit, label %.lr.ph.i

24:                                               ; preds = %.lr.ph.i
  %25 = add nuw nsw i32 %.01116.i, 2
  %26 = mul nuw nsw i32 %25, %25
  %.not.i = icmp ugt i32 %26, %22
  br i1 %.not.i, label %Abc_PrimeCudd.exit, label %.lr.ph.i, !llvm.loop !39

.lr.ph.i:                                         ; preds = %.preheader.i, %24
  %.01116.i = phi i32 [ %25, %24 ], [ 3, %.preheader.i ]
  %27 = urem i32 %22, %.01116.i
  %28 = icmp eq i32 %27, 0
  br i1 %28, label %.loopexit.i.backedge, label %24, !llvm.loop !38

Abc_PrimeCudd.exit:                               ; preds = %.preheader.i, %24
  %29 = load i32, ptr %20, align 8, !tbaa !40
  %.not.i.i = icmp slt i32 %29, %22
  br i1 %.not.i.i, label %30, label %Vec_IntGrow.exit.i

30:                                               ; preds = %Abc_PrimeCudd.exit
  %31 = getelementptr inbounds nuw i8, ptr %0, i64 104
  %32 = load ptr, ptr %31, align 8, !tbaa !10
  %.not9.i.i = icmp eq ptr %32, null
  %33 = sext i32 %22 to i64
  %34 = shl nsw i64 %33, 2
  br i1 %.not9.i.i, label %37, label %35

35:                                               ; preds = %30
  %36 = tail call ptr @realloc(ptr noundef nonnull %32, i64 noundef %34) #24
  br label %39

37:                                               ; preds = %30
  %38 = tail call noalias ptr @malloc(i64 noundef %34) #25
  br label %39

39:                                               ; preds = %37, %35
  %40 = phi ptr [ %36, %35 ], [ %38, %37 ]
  store ptr %40, ptr %31, align 8, !tbaa !10
  store i32 %22, ptr %20, align 8, !tbaa !40
  br label %Vec_IntGrow.exit.i

Vec_IntGrow.exit.i:                               ; preds = %39, %Abc_PrimeCudd.exit
  %41 = icmp ult i32 %.012.i, 2147483647
  br i1 %41, label %.lr.ph.i13, label %Vec_IntFill.exit

.lr.ph.i13:                                       ; preds = %Vec_IntGrow.exit.i
  %42 = getelementptr inbounds nuw i8, ptr %0, i64 104
  %43 = load ptr, ptr %42, align 8, !tbaa !10
  %44 = zext nneg i32 %22 to i64
  %45 = shl nuw nsw i64 %44, 2
  tail call void @llvm.memset.p0.i64(ptr align 4 %43, i8 0, i64 %45, i1 false), !tbaa !11
  br label %Vec_IntFill.exit

Vec_IntFill.exit:                                 ; preds = %Vec_IntGrow.exit.i, %.lr.ph.i13
  %46 = getelementptr inbounds nuw i8, ptr %0, i64 100
  store i32 %22, ptr %46, align 4, !tbaa !3
  %47 = getelementptr inbounds nuw i8, ptr %0, i64 80
  %.val9 = load i32, ptr %2, align 8, !tbaa !34
  %48 = tail call noundef i32 @llvm.smax.i32(i32 %22, i32 %.val9)
  %49 = load i32, ptr %47, align 8, !tbaa !40
  %.not.i14 = icmp slt i32 %49, %48
  br i1 %.not.i14, label %50, label %Vec_IntGrow.exit

50:                                               ; preds = %Vec_IntFill.exit
  %51 = getelementptr inbounds nuw i8, ptr %0, i64 88
  %52 = load ptr, ptr %51, align 8, !tbaa !10
  %.not9.i = icmp eq ptr %52, null
  %53 = sext i32 %48 to i64
  %54 = shl nsw i64 %53, 2
  br i1 %.not9.i, label %57, label %55

55:                                               ; preds = %50
  %56 = tail call ptr @realloc(ptr noundef nonnull %52, i64 noundef %54) #24
  %.val10.pr.pre = load i32, ptr %2, align 8, !tbaa !34
  br label %59

57:                                               ; preds = %50
  %58 = tail call noalias ptr @malloc(i64 noundef %54) #25
  br label %59

59:                                               ; preds = %57, %55
  %.val10.pr = phi i32 [ %.val10.pr.pre, %55 ], [ %.val9, %57 ]
  %60 = phi ptr [ %56, %55 ], [ %58, %57 ]
  store ptr %60, ptr %51, align 8, !tbaa !10
  store i32 %48, ptr %47, align 8, !tbaa !40
  br label %Vec_IntGrow.exit

Vec_IntGrow.exit:                                 ; preds = %Vec_IntFill.exit, %59
  %61 = phi i32 [ %49, %Vec_IntFill.exit ], [ %48, %59 ]
  %.val10 = phi i32 [ %.val9, %Vec_IntFill.exit ], [ %.val10.pr, %59 ]
  %.not.i.i15 = icmp slt i32 %61, %.val10
  br i1 %.not.i.i15, label %62, label %Vec_IntGrow.exit.i16

62:                                               ; preds = %Vec_IntGrow.exit
  %63 = getelementptr inbounds nuw i8, ptr %0, i64 88
  %64 = load ptr, ptr %63, align 8, !tbaa !10
  %.not9.i.i18 = icmp eq ptr %64, null
  %65 = sext i32 %.val10 to i64
  %66 = shl nsw i64 %65, 2
  br i1 %.not9.i.i18, label %69, label %67

67:                                               ; preds = %62
  %68 = tail call ptr @realloc(ptr noundef nonnull %64, i64 noundef %66) #24
  br label %71

69:                                               ; preds = %62
  %70 = tail call noalias ptr @malloc(i64 noundef %66) #25
  br label %71

71:                                               ; preds = %69, %67
  %72 = phi ptr [ %68, %67 ], [ %70, %69 ]
  store ptr %72, ptr %63, align 8, !tbaa !10
  store i32 %.val10, ptr %47, align 8, !tbaa !40
  br label %Vec_IntGrow.exit.i16

Vec_IntGrow.exit.i16:                             ; preds = %71, %Vec_IntGrow.exit
  %73 = icmp sgt i32 %.val10, 0
  br i1 %73, label %.lr.ph.i17, label %Vec_IntFill.exit19

.lr.ph.i17:                                       ; preds = %Vec_IntGrow.exit.i16
  %74 = getelementptr inbounds nuw i8, ptr %0, i64 88
  %75 = load ptr, ptr %74, align 8, !tbaa !10
  %76 = zext nneg i32 %.val10 to i64
  %77 = shl nuw nsw i64 %76, 2
  tail call void @llvm.memset.p0.i64(ptr align 4 %75, i8 0, i64 %77, i1 false), !tbaa !11
  br label %Vec_IntFill.exit19

Vec_IntFill.exit19:                               ; preds = %Vec_IntGrow.exit.i16, %.lr.ph.i17
  %78 = getelementptr inbounds nuw i8, ptr %0, i64 84
  store i32 %.val10, ptr %78, align 4, !tbaa !3
  ret void
}